; Function Attrs: nounwind uwtable
define void @Cba_ManWriteConcat(ptr noundef captures(none) %0, i32 noundef %1) local_unnamed_addr #2 {
  %3 = load ptr, ptr %0, align 8, !tbaa !49
  %4 = getelementptr inbounds nuw i8, ptr %3, i64 1584
  %5 = getelementptr inbounds nuw i8, ptr %3, i64 1588
  %6 = load i32, ptr %5, align 4, !tbaa !18
  %7 = load i32, ptr %4, align 8, !tbaa !20
  %8 = icmp eq i32 %6, %7
  br i1 %8, label %9, label %.Vec_StrGrow.exit10_crit_edge.i

.Vec_StrGrow.exit10_crit_edge.i:                  ; preds = %2
  %.phi.trans.insert.i = getelementptr inbounds nuw i8, ptr %3, i64 1592
  %.pre.i = load ptr, ptr %.phi.trans.insert.i, align 8, !tbaa !21
  br label %Vec_StrPush.exit

9:                                                ; preds = %2
  %10 = icmp slt i32 %6, 16
  br i1 %10, label %11, label %19

11:                                               ; preds = %9
  %12 = getelementptr inbounds nuw i8, ptr %3, i64 1592
  %13 = load ptr, ptr %12, align 8, !tbaa !21
  %.not9.i.i = icmp eq ptr %13, null
  br i1 %.not9.i.i, label %16, label %14

14:                                               ; preds = %11
  %15 = tail call dereferenceable_or_null(16) ptr @realloc(ptr noundef nonnull %13, i64 noundef 16) #17
  br label %Vec_StrGrow.exit.i

16:                                               ; preds = %11
  %17 = tail call noalias dereferenceable_or_null(16) ptr @malloc(i64 noundef 16) #18
  br label %Vec_StrGrow.exit.i

Vec_StrGrow.exit.i:                               ; preds = %16, %14
  %18 = phi ptr [ %15, %14 ], [ %17, %16 ]
  store ptr %18, ptr %12, align 8, !tbaa !21
  store i32 16, ptr %4, align 8, !tbaa !20
  br label %Vec_StrPush.exit

19:                                               ; preds = %9
  %20 = shl nuw nsw i32 %6, 1
  %21 = getelementptr inbounds nuw i8, ptr %3, i64 1592
  %22 = load ptr, ptr %21, align 8, !tbaa !21
  %.not9.i9.i = icmp eq ptr %22, null
  %23 = zext nneg i32 %20 to i64
  br i1 %.not9.i9.i, label %26, label %24

24:                                               ; preds = %19
  %25 = tail call ptr @realloc(ptr noundef nonnull %22, i64 noundef %23) #17
  br label %28

26:                                               ; preds = %19
  %27 = tail call noalias ptr @malloc(i64 noundef %23) #18
  br label %28

28:                                               ; preds = %26, %24
  %29 = phi ptr [ %25, %24 ], [ %27, %26 ]
  store ptr %29, ptr %21, align 8, !tbaa !21
  store i32 %20, ptr %4, align 8, !tbaa !20
  br label %Vec_StrPush.exit

Vec_StrPush.exit:                                 ; preds = %.Vec_StrGrow.exit10_crit_edge.i, %Vec_StrGrow.exit.i, %28
  %30 = phi ptr [ %.pre.i, %.Vec_StrGrow.exit10_crit_edge.i ], [ %29, %28 ], [ %18, %Vec_StrGrow.exit.i ]
  %31 = load i32, ptr %5, align 4, !tbaa !18
  %32 = add nsw i32 %31, 1
  store i32 %32, ptr %5, align 4, !tbaa !18
  %33 = sext i32 %31 to i64
  %34 = getelementptr inbounds i8, ptr %30, i64 %33
  store i8 123, ptr %34, align 1, !tbaa !15
  %35 = getelementptr i8, ptr %0, i64 112
  %.val = load ptr, ptr %35, align 8, !tbaa !23
  %36 = sext i32 %1 to i64
  %37 = getelementptr i32, ptr %.val, i64 %36
  %38 = load i32, ptr %37, align 4, !tbaa !24
  %39 = getelementptr i8, ptr %37, i64 4
  %40 = load i32, ptr %39, align 4, !tbaa !24
  %41 = icmp slt i32 %38, %40
  br i1 %41, label %.lr.ph, label %.critedge

.lr.ph:                                           ; preds = %Vec_StrPush.exit
  %42 = getelementptr i8, ptr %0, i64 144
  %.phi.trans.insert.i.i = getelementptr inbounds nuw i8, ptr %3, i64 1592
  %43 = sext i32 %38 to i64
  br label %44

44:                                               ; preds = %.lr.ph, %Vec_StrPrintStr.exit
  %indvars.iv = phi i64 [ %43, %.lr.ph ], [ %indvars.iv.next, %Vec_StrPrintStr.exit ]
  %.028 = phi i32 [ 0, %.lr.ph ], [ %77, %Vec_StrPrintStr.exit ]
  %.val17 = load ptr, ptr %42, align 8, !tbaa !23
  %45 = getelementptr inbounds i32, ptr %.val17, i64 %indvars.iv
  %46 = load i32, ptr %45, align 4, !tbaa !24
  %.not = icmp eq i32 %.028, 0
  %47 = select i1 %.not, ptr @.str.2, ptr @.str.58
  br i1 %.not, label %Vec_StrPrintStr.exit, label %.lr.ph.i

.lr.ph.i:                                         ; preds = %44, %Vec_StrPush.exit.i
  %indvars.iv.i = phi i64 [ %indvars.iv.next.i, %Vec_StrPush.exit.i ], [ 0, %44 ]
  %48 = getelementptr inbounds nuw i8, ptr %47, i64 %indvars.iv.i
  %49 = load i8, ptr %48, align 1, !tbaa !15
  %50 = load i32, ptr %5, align 4, !tbaa !18
  %51 = load i32, ptr %4, align 8, !tbaa !20
  %52 = icmp eq i32 %50, %51
  br i1 %52, label %53, label %.Vec_StrGrow.exit10_crit_edge.i.i

.Vec_StrGrow.exit10_crit_edge.i.i:                ; preds = %.lr.ph.i
  %.pre.i.i = load ptr, ptr %.phi.trans.insert.i.i, align 8, !tbaa !21
  br label %Vec_StrPush.exit.i

53:                                               ; preds = %.lr.ph.i
  %54 = icmp slt i32 %50, 16
  br i1 %54, label %55, label %62

55:                                               ; preds = %53
  %56 = load ptr, ptr %.phi.trans.insert.i.i, align 8, !tbaa !21
  %.not9.i.i.i = icmp eq ptr %56, null
  br i1 %.not9.i.i.i, label %59, label %57

57:                                               ; preds = %55
  %58 = tail call dereferenceable_or_null(16) ptr @realloc(ptr noundef nonnull %56, i64 noundef 16) #17
  br label %Vec_StrGrow.exit.i.i

59:                                               ; preds = %55
  %60 = tail call noalias dereferenceable_or_null(16) ptr @malloc(i64 noundef 16) #18
  br label %Vec_StrGrow.exit.i.i

Vec_StrGrow.exit.i.i:                             ; preds = %59, %57
  %61 = phi ptr [ %58, %57 ], [ %60, %59 ]
  store ptr %61, ptr %.phi.trans.insert.i.i, align 8, !tbaa !21
  store i32 16, ptr %4, align 8, !tbaa !20
  br label %Vec_StrPush.exit.i

62:                                               ; preds = %53
  %63 = shl nuw nsw i32 %50, 1
  %64 = load ptr, ptr %.phi.trans.insert.i.i, align 8, !tbaa !21
  %.not9.i9.i.i = icmp eq ptr %64, null
  %65 = zext nneg i32 %63 to i64
  br i1 %.not9.i9.i.i, label %68, label %66

66:                                               ; preds = %62
  %67 = tail call ptr @realloc(ptr noundef nonnull %64, i64 noundef %65) #17
  br label %70

68:                                               ; preds = %62
  %69 = tail call noalias ptr @malloc(i64 noundef %65) #18
  br label %70

70:                                               ; preds = %68, %66
  %71 = phi ptr [ %67, %66 ], [ %69, %68 ]
  store ptr %71, ptr %.phi.trans.insert.i.i, align 8, !tbaa !21
  store i32 %63, ptr %4, align 8, !tbaa !20
  br label %Vec_StrPush.exit.i

Vec_StrPush.exit.i:                               ; preds = %70, %Vec_StrGrow.exit.i.i, %.Vec_StrGrow.exit10_crit_edge.i.i
  %72 = phi ptr [ %.pre.i.i, %.Vec_StrGrow.exit10_crit_edge.i.i ], [ %71, %70 ], [ %61, %Vec_StrGrow.exit.i.i ]
  %73 = load i32, ptr %5, align 4, !tbaa !18
  %74 = add nsw i32 %73, 1
  store i32 %74, ptr %5, align 4, !tbaa !18
  %75 = sext i32 %73 to i64
  %76 = getelementptr inbounds i8, ptr %72, i64 %75
  store i8 %49, ptr %76, align 1, !tbaa !15
  %indvars.iv.next.i = add nuw nsw i64 %indvars.iv.i, 1
  %exitcond.not.i = icmp eq i64 %indvars.iv.next.i, 2
  br i1 %exitcond.not.i, label %Vec_StrPrintStr.exit, label %.lr.ph.i, !llvm.loop !59

Vec_StrPrintStr.exit:                             ; preds = %Vec_StrPush.exit.i, %44
  tail call void @Cba_ManWriteFonName(ptr noundef nonnull %0, i32 noundef %46, i32 noundef 1, i32 noundef 0)
  %indvars.iv.next = add nsw i64 %indvars.iv, 1
  %77 = add nuw nsw i32 %.028, 1
  %.val16 = load ptr, ptr %35, align 8, !tbaa !23
  %78 = getelementptr i32, ptr %.val16, i64 %36
  %79 = getelementptr i8, ptr %78, i64 4
  %80 = load i32, ptr %79, align 4, !tbaa !24
  %81 = sext i32 %80 to i64
  %82 = icmp slt i64 %indvars.iv.next, %81
  br i1 %82, label %44, label %.critedge, !llvm.loop !60

.critedge:                                        ; preds = %Vec_StrPrintStr.exit, %Vec_StrPush.exit
  %83 = load i32, ptr %5, align 4, !tbaa !18
  %84 = load i32, ptr %4, align 8, !tbaa !20
  %85 = icmp eq i32 %83, %84
  br i1 %85, label %86, label %.Vec_StrGrow.exit10_crit_edge.i18

.Vec_StrGrow.exit10_crit_edge.i18:                ; preds = %.critedge
  %.phi.trans.insert.i19 = getelementptr inbounds nuw i8, ptr %3, i64 1592
  %.pre.i20 = load ptr, ptr %.phi.trans.insert.i19, align 8, !tbaa !21
  br label %Vec_StrPush.exit24

86:                                               ; preds = %.critedge
  %87 = icmp slt i32 %83, 16
  br i1 %87, label %88, label %96

88:                                               ; preds = %86
  %89 = getelementptr inbounds nuw i8, ptr %3, i64 1592
  %90 = load ptr, ptr %89, align 8, !tbaa !21
  %.not9.i.i22 = icmp eq ptr %90, null
  br i1 %.not9.i.i22, label %93, label %91

91:                                               ; preds = %88
  %92 = tail call dereferenceable_or_null(16) ptr @realloc(ptr noundef nonnull %90, i64 noundef 16) #17
  br label %Vec_StrGrow.exit.i23

93:                                               ; preds = %88
  %94 = tail call noalias dereferenceable_or_null(16) ptr @malloc(i64 noundef 16) #18
  br label %Vec_StrGrow.exit.i23

Vec_StrGrow.exit.i23:                             ; preds = %93, %91
  %95 = phi ptr [ %92, %91 ], [ %94, %93 ]
  store ptr %95, ptr %89, align 8, !tbaa !21
  store i32 16, ptr %4, align 8, !tbaa !20
  br label %Vec_StrPush.exit24

96:                                               ; preds = %86
  %97 = shl nuw nsw i32 %83, 1
  %98 = getelementptr inbounds nuw i8, ptr %3, i64 1592
  %99 = load ptr, ptr %98, align 8, !tbaa !21
  %.not9.i9.i21 = icmp eq ptr %99, null
  %100 = zext nneg i32 %97 to i64
  br i1 %.not9.i9.i21, label %103, label %101

101:                                              ; preds = %96
  %102 = tail call ptr @realloc(ptr noundef nonnull %99, i64 noundef %100) #17
  br label %105

103:                                              ; preds = %96
  %104 = tail call noalias ptr @malloc(i64 noundef %100) #18
  br label %105

105:                                              ; preds = %103, %101
  %106 = phi ptr [ %102, %101 ], [ %104, %103 ]
  store ptr %106, ptr %98, align 8, !tbaa !21
  store i32 %97, ptr %4, align 8, !tbaa !20
  br label %Vec_StrPush.exit24

Vec_StrPush.exit24:                               ; preds = %.Vec_StrGrow.exit10_crit_edge.i18, %Vec_StrGrow.exit.i23, %105
  %107 = phi ptr [ %.pre.i20, %.Vec_StrGrow.exit10_crit_edge.i18 ], [ %106, %105 ], [ %95, %Vec_StrGrow.exit.i23 ]
  %108 = load i32, ptr %5, align 4, !tbaa !18
  %109 = add nsw i32 %108, 1
  store i32 %109, ptr %5, align 4, !tbaa !18
  %110 = sext i32 %108 to i64
  %111 = getelementptr inbounds i8, ptr %107, i64 %110
  store i8 125, ptr %111, align 1, !tbaa !15
  ret void
}